Component: ARM Compiler 5.05 update 1 (build 106) Tool: armlink [4d0efa]

==============================================================================

Section Cross References

    main.o(.text) refers to swm320_gpio.o(.text) for GPIO_Init
    main.o(.text) refers to swm320_lcd.o(.text) for LCD_Init
    main.o(.text) refers to swm320_sram.o(.text) for SRAM_Init
    main.o(.text) refers to swm320_port.o(.text) for PORT_Init
    main.o(.text) refers to swm320_uart.o(.text) for UART_Init
    main.o(.text) refers to system_swm320.o(.text) for SystemInit
    main.o(.text) refers to ugui.o(.text) for UG_Init
    main.o(.text) refers to main.o(.ARM.__AT_0x69000000) for .ARM.__AT_0x69000000
    main.o(.text) refers to main.o(.constdata) for .constdata
    main.o(.text) refers to main.o(.bss) for .bss
    main.o(.text) refers to ugui.o(.constdata) for FONT_12X20
    main.o(.text) refers to system_swm320.o(.data) for SystemCoreClock
    ugui.o(.text) refers to memcpya.o(.text) for __aeabi_memcpy4
    ugui.o(.text) refers to ugui.o(.data) for .data
    ugui.o(.text) refers to ugui.o(.constdata) for .constdata
    ugui.o(.constdata) refers to ugui.o(.constdata) for font_12x20
    swm320_adc.o(.text) refers to system_swm320.o(.text) for PLLInit
    swm320_gpio.o(.text) refers to swm320_port.o(.text) for PORT_Init
    swm320_i2c.o(.text) refers to system_swm320.o(.data) for SystemCoreClock
    swm320_uart.o(.text) refers to system_swm320.o(.data) for SystemCoreClock
    swm320_can.o(.text) refers to system_swm320.o(.data) for SystemCoreClock
    swm320_rtc.o(.text) refers to memcpya.o(.text) for __aeabi_memcpy4
    swm320_rtc.o(.text) refers to swm320_rtc.o(.constdata) for .constdata
    swm320_sdio.o(.text) refers to system_swm320.o(.data) for SystemCoreClock
    swm320_sdio.o(.text) refers to swm320_sdio.o(.bss) for .bss
    system_swm320.o(.text) refers to system_swm320.o(.data) for .data
    startup_swm320.o(RESET) refers to startup_swm320.o(STACK) for __initial_sp
    startup_swm320.o(RESET) refers to startup_swm320.o(.text) for Reset_Handler
    startup_swm320.o(RESET) refers to main.o(.text) for LCD_Handler
    startup_swm320.o(.text) refers to entry.o(.ARM.Collect$$$$00000000) for __main
    entry.o(.ARM.Collect$$$$00000000) refers (Special) to entry10a.o(.ARM.Collect$$$$0000000D) for __rt_final_cpp
    entry.o(.ARM.Collect$$$$00000000) refers (Special) to entry11a.o(.ARM.Collect$$$$0000000F) for __rt_final_exit
    entry.o(.ARM.Collect$$$$00000000) refers (Special) to entry7b.o(.ARM.Collect$$$$00000008) for _main_clock
    entry.o(.ARM.Collect$$$$00000000) refers (Special) to entry8b.o(.ARM.Collect$$$$0000000A) for _main_cpp_init
    entry.o(.ARM.Collect$$$$00000000) refers (Special) to entry9a.o(.ARM.Collect$$$$0000000B) for _main_init
    entry.o(.ARM.Collect$$$$00000000) refers (Special) to entry5.o(.ARM.Collect$$$$00000004) for _main_scatterload
    entry.o(.ARM.Collect$$$$00000000) refers (Special) to entry2.o(.ARM.Collect$$$$00000001) for _main_stk
    entry2.o(.ARM.Collect$$$$00000001) refers to entry2.o(.ARM.Collect$$$$00002712) for __lit__00000000
    entry2.o(.ARM.Collect$$$$00002712) refers to startup_swm320.o(STACK) for __initial_sp
    entry2.o(__vectab_stack_and_reset_area) refers to startup_swm320.o(STACK) for __initial_sp
    entry2.o(__vectab_stack_and_reset_area) refers to entry.o(.ARM.Collect$$$$00000000) for __main
    entry5.o(.ARM.Collect$$$$00000004) refers to init.o(.text) for __scatterload
    entry9a.o(.ARM.Collect$$$$0000000B) refers to main.o(.text) for main
    entry9b.o(.ARM.Collect$$$$0000000C) refers to main.o(.text) for main
    init.o(.text) refers to entry5.o(.ARM.Collect$$$$00000004) for __main_after_scatterload


==============================================================================

Removing Unused input sections from the image.

    Removing main.o(.rev16_text), (4 bytes).
    Removing main.o(.revsh_text), (4 bytes).
    Removing main.o(.rrx_text), (6 bytes).
    Removing swm320_adc.o(.rev16_text), (4 bytes).
    Removing swm320_adc.o(.revsh_text), (4 bytes).
    Removing swm320_adc.o(.rrx_text), (6 bytes).
    Removing swm320_adc.o(.text), (1384 bytes).
    Removing swm320_exti.o(.rev16_text), (4 bytes).
    Removing swm320_exti.o(.revsh_text), (4 bytes).
    Removing swm320_exti.o(.rrx_text), (6 bytes).
    Removing swm320_exti.o(.text), (152 bytes).
    Removing swm320_gpio.o(.rev16_text), (4 bytes).
    Removing swm320_gpio.o(.revsh_text), (4 bytes).
    Removing swm320_gpio.o(.rrx_text), (6 bytes).
    Removing swm320_i2c.o(.rev16_text), (4 bytes).
    Removing swm320_i2c.o(.revsh_text), (4 bytes).
    Removing swm320_i2c.o(.rrx_text), (6 bytes).
    Removing swm320_i2c.o(.text), (476 bytes).
    Removing swm320_pwm.o(.rev16_text), (4 bytes).
    Removing swm320_pwm.o(.revsh_text), (4 bytes).
    Removing swm320_pwm.o(.rrx_text), (6 bytes).
    Removing swm320_pwm.o(.text), (2294 bytes).
    Removing swm320_timr.o(.rev16_text), (4 bytes).
    Removing swm320_timr.o(.revsh_text), (4 bytes).
    Removing swm320_timr.o(.rrx_text), (6 bytes).
    Removing swm320_timr.o(.text), (928 bytes).
    Removing swm320_uart.o(.rev16_text), (4 bytes).
    Removing swm320_uart.o(.revsh_text), (4 bytes).
    Removing swm320_uart.o(.rrx_text), (6 bytes).
    Removing swm320_wdt.o(.rev16_text), (4 bytes).
    Removing swm320_wdt.o(.revsh_text), (4 bytes).
    Removing swm320_wdt.o(.rrx_text), (6 bytes).
    Removing swm320_wdt.o(.text), (104 bytes).
    Removing swm320_dma.o(.rev16_text), (4 bytes).
    Removing swm320_dma.o(.revsh_text), (4 bytes).
    Removing swm320_dma.o(.rrx_text), (6 bytes).
    Removing swm320_dma.o(.text), (196 bytes).
    Removing swm320_flash.o(.rev16_text), (4 bytes).
    Removing swm320_flash.o(.revsh_text), (4 bytes).
    Removing swm320_flash.o(.rrx_text), (6 bytes).
    Removing swm320_flash.o(.text), (152 bytes).
    Removing swm320_flash.o(.data), (48 bytes).
    Removing swm320_port.o(.rev16_text), (4 bytes).
    Removing swm320_port.o(.revsh_text), (4 bytes).
    Removing swm320_port.o(.rrx_text), (6 bytes).
    Removing swm320_spi.o(.rev16_text), (4 bytes).
    Removing swm320_spi.o(.revsh_text), (4 bytes).
    Removing swm320_spi.o(.rrx_text), (6 bytes).
    Removing swm320_spi.o(.text), (524 bytes).
    Removing swm320_can.o(.rev16_text), (4 bytes).
    Removing swm320_can.o(.revsh_text), (4 bytes).
    Removing swm320_can.o(.rrx_text), (6 bytes).
    Removing swm320_can.o(.text), (944 bytes).
    Removing swm320_crc.o(.rev16_text), (4 bytes).
    Removing swm320_crc.o(.revsh_text), (4 bytes).
    Removing swm320_crc.o(.rrx_text), (6 bytes).
    Removing swm320_crc.o(.text), (44 bytes).
    Removing swm320_lcd.o(.rev16_text), (4 bytes).
    Removing swm320_lcd.o(.revsh_text), (4 bytes).
    Removing swm320_lcd.o(.rrx_text), (6 bytes).
    Removing swm320_rtc.o(.rev16_text), (4 bytes).
    Removing swm320_rtc.o(.revsh_text), (4 bytes).
    Removing swm320_rtc.o(.rrx_text), (6 bytes).
    Removing swm320_rtc.o(.text), (648 bytes).
    Removing swm320_rtc.o(.constdata), (52 bytes).
    Removing swm320_sdio.o(.rev16_text), (4 bytes).
    Removing swm320_sdio.o(.revsh_text), (4 bytes).
    Removing swm320_sdio.o(.rrx_text), (6 bytes).
    Removing swm320_sdio.o(.text), (1468 bytes).
    Removing swm320_sdio.o(.bss), (80 bytes).
    Removing swm320_norflash.o(.rev16_text), (4 bytes).
    Removing swm320_norflash.o(.revsh_text), (4 bytes).
    Removing swm320_norflash.o(.rrx_text), (6 bytes).
    Removing swm320_norflash.o(.text), (320 bytes).
    Removing swm320_sdram.o(.rev16_text), (4 bytes).
    Removing swm320_sdram.o(.revsh_text), (4 bytes).
    Removing swm320_sdram.o(.rrx_text), (6 bytes).
    Removing swm320_sdram.o(.text), (112 bytes).
    Removing swm320_sram.o(.rev16_text), (4 bytes).
    Removing swm320_sram.o(.revsh_text), (4 bytes).
    Removing swm320_sram.o(.rrx_text), (6 bytes).
    Removing system_swm320.o(.rev16_text), (4 bytes).
    Removing system_swm320.o(.revsh_text), (4 bytes).
    Removing system_swm320.o(.rrx_text), (6 bytes).
    Removing system_swm320.o(.data), (4 bytes).
    Removing startup_swm320.o(HEAP), (512 bytes).

86 unused section(s) (total 10750 bytes) removed from the image.

==============================================================================

Image Symbol Table

    Local Symbols

    Symbol Name                              Value     Ov Type        Size  Object(Section)

    RESET                                    0x00000000   Section      328  startup_swm320.o(RESET)
    ../clib/microlib/init/entry.s            0x00000000   Number         0  entry.o ABSOLUTE
    ../clib/microlib/init/entry.s            0x00000000   Number         0  entry5.o ABSOLUTE
    ../clib/microlib/init/entry.s            0x00000000   Number         0  entry9b.o ABSOLUTE
    ../clib/microlib/init/entry.s            0x00000000   Number         0  entry2.o ABSOLUTE
    ../clib/microlib/init/entry.s            0x00000000   Number         0  entry7b.o ABSOLUTE
    ../clib/microlib/init/entry.s            0x00000000   Number         0  entry11b.o ABSOLUTE
    ../clib/microlib/init/entry.s            0x00000000   Number         0  entry11a.o ABSOLUTE
    ../clib/microlib/init/entry.s            0x00000000   Number         0  entry10b.o ABSOLUTE
    ../clib/microlib/init/entry.s            0x00000000   Number         0  entry10a.o ABSOLUTE
    ../clib/microlib/init/entry.s            0x00000000   Number         0  entry9a.o ABSOLUTE
    ../clib/microlib/init/entry.s            0x00000000   Number         0  entry8b.o ABSOLUTE
    ../clib/microlib/init/entry.s            0x00000000   Number         0  entry8a.o ABSOLUTE
    ../clib/microlib/init/entry.s            0x00000000   Number         0  entry7a.o ABSOLUTE
    ../clib/microlib/string/memcpy.c         0x00000000   Number         0  memcpyb.o ABSOLUTE
    ../clib/microlib/string/memcpy.c         0x00000000   Number         0  memcpya.o ABSOLUTE
    ..\..\SWM320_StdPeriph_Driver\CSL\CMSIS\DeviceSupport\startup\arm\startup_SWM320.s 0x00000000   Number         0  startup_swm320.o ABSOLUTE
    ..\..\SWM320_StdPeriph_Driver\CSL\CMSIS\DeviceSupport\system_SWM320.c 0x00000000   Number         0  system_swm320.o ABSOLUTE
    ..\..\SWM320_StdPeriph_Driver\CSL\SWM320_StdPeriph_Driver\SWM320_adc.c 0x00000000   Number         0  swm320_adc.o ABSOLUTE
    ..\..\SWM320_StdPeriph_Driver\CSL\SWM320_StdPeriph_Driver\SWM320_can.c 0x00000000   Number         0  swm320_can.o ABSOLUTE
    ..\..\SWM320_StdPeriph_Driver\CSL\SWM320_StdPeriph_Driver\SWM320_crc.c 0x00000000   Number         0  swm320_crc.o ABSOLUTE
    ..\..\SWM320_StdPeriph_Driver\CSL\SWM320_StdPeriph_Driver\SWM320_dma.c 0x00000000   Number         0  swm320_dma.o ABSOLUTE
    ..\..\SWM320_StdPeriph_Driver\CSL\SWM320_StdPeriph_Driver\SWM320_exti.c 0x00000000   Number         0  swm320_exti.o ABSOLUTE
    ..\..\SWM320_StdPeriph_Driver\CSL\SWM320_StdPeriph_Driver\SWM320_flash.c 0x00000000   Number         0  swm320_flash.o ABSOLUTE
    ..\..\SWM320_StdPeriph_Driver\CSL\SWM320_StdPeriph_Driver\SWM320_gpio.c 0x00000000   Number         0  swm320_gpio.o ABSOLUTE
    ..\..\SWM320_StdPeriph_Driver\CSL\SWM320_StdPeriph_Driver\SWM320_i2c.c 0x00000000   Number         0  swm320_i2c.o ABSOLUTE
    ..\..\SWM320_StdPeriph_Driver\CSL\SWM320_StdPeriph_Driver\SWM320_lcd.c 0x00000000   Number         0  swm320_lcd.o ABSOLUTE
    ..\..\SWM320_StdPeriph_Driver\CSL\SWM320_StdPeriph_Driver\SWM320_norflash.c 0x00000000   Number         0  swm320_norflash.o ABSOLUTE
    ..\..\SWM320_StdPeriph_Driver\CSL\SWM320_StdPeriph_Driver\SWM320_port.c 0x00000000   Number         0  swm320_port.o ABSOLUTE
    ..\..\SWM320_StdPeriph_Driver\CSL\SWM320_StdPeriph_Driver\SWM320_pwm.c 0x00000000   Number         0  swm320_pwm.o ABSOLUTE
    ..\..\SWM320_StdPeriph_Driver\CSL\SWM320_StdPeriph_Driver\SWM320_rtc.c 0x00000000   Number         0  swm320_rtc.o ABSOLUTE
    ..\..\SWM320_StdPeriph_Driver\CSL\SWM320_StdPeriph_Driver\SWM320_sdio.c 0x00000000   Number         0  swm320_sdio.o ABSOLUTE
    ..\..\SWM320_StdPeriph_Driver\CSL\SWM320_StdPeriph_Driver\SWM320_sdram.c 0x00000000   Number         0  swm320_sdram.o ABSOLUTE
    ..\..\SWM320_StdPeriph_Driver\CSL\SWM320_StdPeriph_Driver\SWM320_spi.c 0x00000000   Number         0  swm320_spi.o ABSOLUTE
    ..\..\SWM320_StdPeriph_Driver\CSL\SWM320_StdPeriph_Driver\SWM320_sram.c 0x00000000   Number         0  swm320_sram.o ABSOLUTE
    ..\..\SWM320_StdPeriph_Driver\CSL\SWM320_StdPeriph_Driver\SWM320_timr.c 0x00000000   Number         0  swm320_timr.o ABSOLUTE
    ..\..\SWM320_StdPeriph_Driver\CSL\SWM320_StdPeriph_Driver\SWM320_uart.c 0x00000000   Number         0  swm320_uart.o ABSOLUTE
    ..\..\SWM320_StdPeriph_Driver\CSL\SWM320_StdPeriph_Driver\SWM320_wdt.c 0x00000000   Number         0  swm320_wdt.o ABSOLUTE
    ..\\..\\SWM320_StdPeriph_Driver\\CSL\\CMSIS\\DeviceSupport\\system_SWM320.c 0x00000000   Number         0  system_swm320.o ABSOLUTE
    ..\\..\\SWM320_StdPeriph_Driver\\CSL\\SWM320_StdPeriph_Driver\\SWM320_adc.c 0x00000000   Number         0  swm320_adc.o ABSOLUTE
    ..\\..\\SWM320_StdPeriph_Driver\\CSL\\SWM320_StdPeriph_Driver\\SWM320_can.c 0x00000000   Number         0  swm320_can.o ABSOLUTE
    ..\\..\\SWM320_StdPeriph_Driver\\CSL\\SWM320_StdPeriph_Driver\\SWM320_crc.c 0x00000000   Number         0  swm320_crc.o ABSOLUTE
    ..\\..\\SWM320_StdPeriph_Driver\\CSL\\SWM320_StdPeriph_Driver\\SWM320_dma.c 0x00000000   Number         0  swm320_dma.o ABSOLUTE
    ..\\..\\SWM320_StdPeriph_Driver\\CSL\\SWM320_StdPeriph_Driver\\SWM320_exti.c 0x00000000   Number         0  swm320_exti.o ABSOLUTE
    ..\\..\\SWM320_StdPeriph_Driver\\CSL\\SWM320_StdPeriph_Driver\\SWM320_flash.c 0x00000000   Number         0  swm320_flash.o ABSOLUTE
    ..\\..\\SWM320_StdPeriph_Driver\\CSL\\SWM320_StdPeriph_Driver\\SWM320_gpio.c 0x00000000   Number         0  swm320_gpio.o ABSOLUTE
    ..\\..\\SWM320_StdPeriph_Driver\\CSL\\SWM320_StdPeriph_Driver\\SWM320_i2c.c 0x00000000   Number         0  swm320_i2c.o ABSOLUTE
    ..\\..\\SWM320_StdPeriph_Driver\\CSL\\SWM320_StdPeriph_Driver\\SWM320_lcd.c 0x00000000   Number         0  swm320_lcd.o ABSOLUTE
    ..\\..\\SWM320_StdPeriph_Driver\\CSL\\SWM320_StdPeriph_Driver\\SWM320_norflash.c 0x00000000   Number         0  swm320_norflash.o ABSOLUTE
    ..\\..\\SWM320_StdPeriph_Driver\\CSL\\SWM320_StdPeriph_Driver\\SWM320_port.c 0x00000000   Number         0  swm320_port.o ABSOLUTE
    ..\\..\\SWM320_StdPeriph_Driver\\CSL\\SWM320_StdPeriph_Driver\\SWM320_pwm.c 0x00000000   Number         0  swm320_pwm.o ABSOLUTE
    ..\\..\\SWM320_StdPeriph_Driver\\CSL\\SWM320_StdPeriph_Driver\\SWM320_rtc.c 0x00000000   Number         0  swm320_rtc.o ABSOLUTE
    ..\\..\\SWM320_StdPeriph_Driver\\CSL\\SWM320_StdPeriph_Driver\\SWM320_sdio.c 0x00000000   Number         0  swm320_sdio.o ABSOLUTE
    ..\\..\\SWM320_StdPeriph_Driver\\CSL\\SWM320_StdPeriph_Driver\\SWM320_sdram.c 0x00000000   Number         0  swm320_sdram.o ABSOLUTE
    ..\\..\\SWM320_StdPeriph_Driver\\CSL\\SWM320_StdPeriph_Driver\\SWM320_spi.c 0x00000000   Number         0  swm320_spi.o ABSOLUTE
    ..\\..\\SWM320_StdPeriph_Driver\\CSL\\SWM320_StdPeriph_Driver\\SWM320_sram.c 0x00000000   Number         0  swm320_sram.o ABSOLUTE
    ..\\..\\SWM320_StdPeriph_Driver\\CSL\\SWM320_StdPeriph_Driver\\SWM320_timr.c 0x00000000   Number         0  swm320_timr.o ABSOLUTE
    ..\\..\\SWM320_StdPeriph_Driver\\CSL\\SWM320_StdPeriph_Driver\\SWM320_uart.c 0x00000000   Number         0  swm320_uart.o ABSOLUTE
    ..\\..\\SWM320_StdPeriph_Driver\\CSL\\SWM320_StdPeriph_Driver\\SWM320_wdt.c 0x00000000   Number         0  swm320_wdt.o ABSOLUTE
    APP\ugui.c                               0x00000000   Number         0  ugui.o ABSOLUTE
    app\\main.c                              0x00000000   Number         0  main.o ABSOLUTE
    app\main.c                               0x00000000   Number         0  main.o ABSOLUTE
    dc.s                                     0x00000000   Number         0  dc.o ABSOLUTE
    handlers.s                               0x00000000   Number         0  handlers.o ABSOLUTE
    init.s                                   0x00000000   Number         0  init.o ABSOLUTE
    .ARM.Collect$$$$00000000                 0x00000148   Section        0  entry.o(.ARM.Collect$$$$00000000)
    .ARM.Collect$$$$00000001                 0x00000148   Section        4  entry2.o(.ARM.Collect$$$$00000001)
    .ARM.Collect$$$$00000004                 0x0000014c   Section        4  entry5.o(.ARM.Collect$$$$00000004)
    .ARM.Collect$$$$00000008                 0x00000150   Section        0  entry7b.o(.ARM.Collect$$$$00000008)
    .ARM.Collect$$$$0000000A                 0x00000150   Section        0  entry8b.o(.ARM.Collect$$$$0000000A)
    .ARM.Collect$$$$0000000B                 0x00000150   Section        8  entry9a.o(.ARM.Collect$$$$0000000B)
    .ARM.Collect$$$$0000000D                 0x00000158   Section        0  entry10a.o(.ARM.Collect$$$$0000000D)
    .ARM.Collect$$$$0000000F                 0x00000158   Section        0  entry11a.o(.ARM.Collect$$$$0000000F)
    .ARM.Collect$$$$00002712                 0x00000158   Section        4  entry2.o(.ARM.Collect$$$$00002712)
    __lit__00000000                          0x00000158   Data           4  entry2.o(.ARM.Collect$$$$00002712)
    .text                                    0x0000015c   Section        0  main.o(.text)
    .text                                    0x000003bc   Section        0  ugui.o(.text)
    .text                                    0x00003134   Section        0  swm320_gpio.o(.text)
    .text                                    0x00003430   Section        0  swm320_uart.o(.text)
    NVIC_EnableIRQ                           0x00003767   Thumb Code    22  swm320_uart.o(.text)
    NVIC_DisableIRQ                          0x0000377d   Thumb Code    22  swm320_uart.o(.text)
    .text                                    0x0000379c   Section        0  swm320_port.o(.text)
    .text                                    0x00003bc8   Section        0  swm320_lcd.o(.text)
    .text                                    0x00003ce0   Section        0  swm320_sram.o(.text)
    .text                                    0x00003d38   Section        0  system_swm320.o(.text)
    .text                                    0x00003ef8   Section      156  startup_swm320.o(.text)
    .text                                    0x00003f94   Section        0  memcpya.o(.text)
    .text                                    0x00003fb8   Section       36  init.o(.text)
    i.__scatterload_copy                     0x00003fdc   Section       14  handlers.o(i.__scatterload_copy)
    i.__scatterload_null                     0x00003fea   Section        2  handlers.o(i.__scatterload_null)
    i.__scatterload_zeroinit                 0x00003fec   Section       14  handlers.o(i.__scatterload_zeroinit)
    .constdata                               0x00003ffc   Section        6  main.o(.constdata)
    .constdata                               0x00004002   Section    10240  ugui.o(.constdata)
    .constdata                               0x00006804   Section       20  ugui.o(.constdata)
    .constdata                               0x00006818   Section      120  ugui.o(.constdata)
    .data                                    0x20000000   Section       12  ugui.o(.data)
    gui                                      0x20000000   Data           4  ugui.o(.data)
    msg                                      0x20000004   Data           8  ugui.o(.data)
    .data                                    0x2000000c   Section        4  system_swm320.o(.data)
    .bss                                     0x20000010   Section      100  main.o(.bss)
    STACK                                    0x20000078   Section     1024  startup_swm320.o(STACK)
    .ARM.__AT_0x69000000                     0x69000000   Section    261120  main.o(.ARM.__AT_0x69000000)

    Global Symbols

    Symbol Name                              Value     Ov Type        Size  Object(Section)

    BuildAttributes$$THM_ISAv4$E$P$D$K$B$S$7EM$PE$A:L22UL41UL21$X:L11$S22US41US21$IEEE1$IW$USESV6$~STKCKD$USESV7$~SHL$OSPACE$EBA8$MICROLIB$REQ8$PRES8$EABIv2 0x00000000   Number         0  anon$$obj.o ABSOLUTE
    __ARM_use_no_argv                        0x00000000   Number         0  main.o ABSOLUTE
    __Vectors                                0x00000000   Data           4  startup_swm320.o(RESET)
    __cpp_initialize__aeabi_                  - Undefined Weak Reference
    __cxa_finalize                            - Undefined Weak Reference
    __decompress                              - Undefined Weak Reference
    _clock_init                               - Undefined Weak Reference
    _microlib_exit                            - Undefined Weak Reference
    __Vectors_End                            0x00000148   Data           0  startup_swm320.o(RESET)
    __Vectors_Size                           0x00000148   Number         0  startup_swm320.o ABSOLUTE
    __main                                   0x00000149   Thumb Code     0  entry.o(.ARM.Collect$$$$00000000)
    _main_stk                                0x00000149   Thumb Code     0  entry2.o(.ARM.Collect$$$$00000001)
    _main_scatterload                        0x0000014d   Thumb Code     0  entry5.o(.ARM.Collect$$$$00000004)
    __main_after_scatterload                 0x00000151   Thumb Code     0  entry5.o(.ARM.Collect$$$$00000004)
    _main_clock                              0x00000151   Thumb Code     0  entry7b.o(.ARM.Collect$$$$00000008)
    _main_cpp_init                           0x00000151   Thumb Code     0  entry8b.o(.ARM.Collect$$$$0000000A)
    _main_init                               0x00000151   Thumb Code     0  entry9a.o(.ARM.Collect$$$$0000000B)
    __rt_final_cpp                           0x00000159   Thumb Code     0  entry10a.o(.ARM.Collect$$$$0000000D)
    __rt_final_exit                          0x00000159   Thumb Code     0  entry11a.o(.ARM.Collect$$$$0000000F)
    _HW_DrawPoint                            0x0000015d   Thumb Code    16  main.o(.text)
    RGBLCDInit                               0x0000016d   Thumb Code   122  main.o(.text)
    MemoryInit                               0x000001e7   Thumb Code    50  main.o(.text)
    SerialInit                               0x00000219   Thumb Code    76  main.o(.text)
    main                                     0x00000265   Thumb Code   234  main.o(.text)
    LCD_Handler                              0x0000034f   Thumb Code    20  main.o(.text)
    fputc                                    0x00000363   Thumb Code    28  main.o(.text)
    UG_Init                                  0x000003bd   Thumb Code   102  ugui.o(.text)
    UG_SelectGUI                             0x00000423   Thumb Code     8  ugui.o(.text)
    UG_FontSelect                            0x0000042b   Thumb Code    14  ugui.o(.text)
    UG_FillFrame                             0x00000439   Thumb Code   112  ugui.o(.text)
    UG_FillScreen                            0x000004a9   Thumb Code    30  ugui.o(.text)
    UG_DrawLine                              0x000004c7   Thumb Code   238  ugui.o(.text)
    UG_FillRoundFrame                        0x000005b5   Thumb Code   252  ugui.o(.text)
    UG_DrawMesh                              0x000006b1   Thumb Code    80  ugui.o(.text)
    UG_DrawFrame                             0x00000701   Thumb Code    74  ugui.o(.text)
    UG_DrawArc                               0x0000074b   Thumb Code   304  ugui.o(.text)
    UG_DrawRoundFrame                        0x0000087b   Thumb Code   184  ugui.o(.text)
    UG_DrawPixel                             0x00000933   Thumb Code     8  ugui.o(.text)
    UG_DrawCircle                            0x0000093b   Thumb Code   254  ugui.o(.text)
    UG_FillCircle                            0x00000a39   Thumb Code   212  ugui.o(.text)
    _UG_PutChar                              0x00000b0d   Thumb Code   750  ugui.o(.text)
    UG_PutChar                               0x00000dfb   Thumb Code    20  ugui.o(.text)
    UG_PutString                             0x00000e0f   Thumb Code   130  ugui.o(.text)
    UG_ConsolePutString                      0x00000e91   Thumb Code   154  ugui.o(.text)
    UG_ConsoleSetArea                        0x00000f2b   Thumb Code    16  ugui.o(.text)
    UG_ConsoleSetForecolor                   0x00000f3b   Thumb Code     8  ugui.o(.text)
    UG_ConsoleSetBackcolor                   0x00000f43   Thumb Code     8  ugui.o(.text)
    UG_SetForecolor                          0x00000f4b   Thumb Code    10  ugui.o(.text)
    UG_SetBackcolor                          0x00000f55   Thumb Code    10  ugui.o(.text)
    UG_GetXDim                               0x00000f5f   Thumb Code    10  ugui.o(.text)
    UG_GetYDim                               0x00000f69   Thumb Code    10  ugui.o(.text)
    UG_FontSetHSpace                         0x00000f73   Thumb Code    10  ugui.o(.text)
    UG_FontSetVSpace                         0x00000f7d   Thumb Code    10  ugui.o(.text)
    _UG_PutText                              0x00000f87   Thumb Code   334  ugui.o(.text)
    _UG_GetFreeObject                        0x000010d5   Thumb Code    40  ugui.o(.text)
    _UG_SearchObject                         0x000010fd   Thumb Code    48  ugui.o(.text)
    _UG_DeleteObject                         0x0000112d   Thumb Code    50  ugui.o(.text)
    _UG_ProcessTouchData                     0x0000115f   Thumb Code   190  ugui.o(.text)
    _UG_UpdateObjects                        0x0000121d   Thumb Code    80  ugui.o(.text)
    _UG_HandleEvents                         0x0000126d   Thumb Code    90  ugui.o(.text)
    _UG_DrawObjectFrame                      0x000012c7   Thumb Code   308  ugui.o(.text)
    _UG_SendObjectPrerenderEvent             0x000013fb   Thumb Code    34  ugui.o(.text)
    _UG_SendObjectPostrenderEvent            0x0000141d   Thumb Code    36  ugui.o(.text)
    UG_DriverRegister                        0x00001441   Thumb Code    22  ugui.o(.text)
    UG_DriverEnable                          0x00001457   Thumb Code    30  ugui.o(.text)
    UG_DriverDisable                         0x00001475   Thumb Code    30  ugui.o(.text)
    _UG_WindowDrawTitle                      0x00001493   Thumb Code   208  ugui.o(.text)
    _UG_WindowUpdate                         0x00001563   Thumb Code   198  ugui.o(.text)
    UG_Update                                0x00001629   Thumb Code   170  ugui.o(.text)
    UG_WaitForUpdate                         0x000016d3   Thumb Code    20  ugui.o(.text)
    UG_DrawBMP                               0x000016e7   Thumb Code   108  ugui.o(.text)
    UG_TouchUpdate                           0x00001753   Thumb Code    12  ugui.o(.text)
    UG_WindowCreate                          0x0000175f   Thumb Code   134  ugui.o(.text)
    UG_WindowDelete                          0x000017e5   Thumb Code    54  ugui.o(.text)
    UG_WindowShow                            0x0000181b   Thumb Code    32  ugui.o(.text)
    _UG_WindowClear                          0x0000183b   Thumb Code    88  ugui.o(.text)
    UG_WindowHide                            0x00001893   Thumb Code   118  ugui.o(.text)
    UG_WindowResize                          0x00001909   Thumb Code   252  ugui.o(.text)
    UG_WindowSetTitleColor                   0x00001a05   Thumb Code    28  ugui.o(.text)
    UG_WindowGetTitleColor                   0x00001a21   Thumb Code    18  ugui.o(.text)
    UG_WindowSetTitleTextColor               0x00001a33   Thumb Code    28  ugui.o(.text)
    UG_WindowGetTitleTextColor               0x00001a4f   Thumb Code    18  ugui.o(.text)
    UG_WindowAlert                           0x00001a61   Thumb Code    58  ugui.o(.text)
    UG_WindowSetForeColor                    0x00001a9b   Thumb Code    28  ugui.o(.text)
    UG_WindowSetBackColor                    0x00001ab7   Thumb Code    28  ugui.o(.text)
    UG_WindowSetTitleInactiveTextColor       0x00001ad3   Thumb Code    28  ugui.o(.text)
    UG_WindowSetTitleInactiveColor           0x00001aef   Thumb Code    28  ugui.o(.text)
    UG_WindowSetTitleText                    0x00001b0b   Thumb Code    28  ugui.o(.text)
    UG_WindowSetTitleTextFont                0x00001b27   Thumb Code    56  ugui.o(.text)
    UG_WindowSetTitleTextHSpace              0x00001b5f   Thumb Code    30  ugui.o(.text)
    UG_WindowSetTitleTextVSpace              0x00001b7d   Thumb Code    30  ugui.o(.text)
    UG_WindowSetTitleTextAlignment           0x00001b9b   Thumb Code    30  ugui.o(.text)
    UG_WindowSetTitleHeight                  0x00001bb9   Thumb Code    34  ugui.o(.text)
    UG_WindowSetXStart                       0x00001bdb   Thumb Code    52  ugui.o(.text)
    UG_WindowSetYStart                       0x00001c0f   Thumb Code    56  ugui.o(.text)
    UG_WindowSetXEnd                         0x00001c47   Thumb Code    56  ugui.o(.text)
    UG_WindowSetYEnd                         0x00001c7f   Thumb Code    52  ugui.o(.text)
    UG_WindowSetStyle                        0x00001cb3   Thumb Code    70  ugui.o(.text)
    UG_WindowGetForeColor                    0x00001cf9   Thumb Code    18  ugui.o(.text)
    UG_WindowGetBackColor                    0x00001d0b   Thumb Code    18  ugui.o(.text)
    UG_WindowGetTitleInactiveTextColor       0x00001d1d   Thumb Code    18  ugui.o(.text)
    UG_WindowGetTitleInactiveColor           0x00001d2f   Thumb Code    18  ugui.o(.text)
    UG_WindowGetTitleText                    0x00001d41   Thumb Code    18  ugui.o(.text)
    UG_WindowGetTitleTextFont                0x00001d53   Thumb Code    18  ugui.o(.text)
    UG_WindowGetTitleTextHSpace              0x00001d65   Thumb Code    20  ugui.o(.text)
    UG_WindowGetTitleTextVSpace              0x00001d79   Thumb Code    20  ugui.o(.text)
    UG_WindowGetTitleTextAlignment           0x00001d8d   Thumb Code    20  ugui.o(.text)
    UG_WindowGetTitleHeight                  0x00001da1   Thumb Code    20  ugui.o(.text)
    UG_WindowGetXStart                       0x00001db5   Thumb Code    22  ugui.o(.text)
    UG_WindowGetYStart                       0x00001dcb   Thumb Code    22  ugui.o(.text)
    UG_WindowGetXEnd                         0x00001de1   Thumb Code    22  ugui.o(.text)
    UG_WindowGetYEnd                         0x00001df7   Thumb Code    22  ugui.o(.text)
    UG_WindowGetStyle                        0x00001e0d   Thumb Code    18  ugui.o(.text)
    UG_WindowGetArea                         0x00001e1f   Thumb Code    86  ugui.o(.text)
    UG_WindowGetInnerWidth                   0x00001e75   Thumb Code    40  ugui.o(.text)
    UG_WindowGetOuterWidth                   0x00001e9d   Thumb Code    30  ugui.o(.text)
    UG_WindowGetInnerHeight                  0x00001ebb   Thumb Code    52  ugui.o(.text)
    UG_WindowGetOuterHeight                  0x00001eef   Thumb Code    30  ugui.o(.text)
    _UG_ButtonUpdate                         0x00001f0d   Thumb Code   500  ugui.o(.text)
    UG_ButtonCreate                          0x00002101   Thumb Code   138  ugui.o(.text)
    UG_ButtonDelete                          0x0000218b   Thumb Code     8  ugui.o(.text)
    UG_ButtonShow                            0x00002193   Thumb Code    34  ugui.o(.text)
    UG_ButtonHide                            0x000021b5   Thumb Code    50  ugui.o(.text)
    UG_ButtonSetForeColor                    0x000021e7   Thumb Code    36  ugui.o(.text)
    UG_ButtonSetBackColor                    0x0000220b   Thumb Code    36  ugui.o(.text)
    UG_ButtonSetAlternateForeColor           0x0000222f   Thumb Code    36  ugui.o(.text)
    UG_ButtonSetAlternateBackColor           0x00002253   Thumb Code    36  ugui.o(.text)
    UG_ButtonSetText                         0x00002277   Thumb Code    36  ugui.o(.text)
    UG_ButtonSetFont                         0x0000229b   Thumb Code    36  ugui.o(.text)
    UG_ButtonSetStyle                        0x000022bf   Thumb Code   128  ugui.o(.text)
    UG_ButtonSetHSpace                       0x0000233f   Thumb Code    36  ugui.o(.text)
    UG_ButtonSetVSpace                       0x00002363   Thumb Code    36  ugui.o(.text)
    UG_ButtonSetAlignment                    0x00002387   Thumb Code    36  ugui.o(.text)
    UG_ButtonGetForeColor                    0x000023ab   Thumb Code    22  ugui.o(.text)
    UG_ButtonGetBackColor                    0x000023c1   Thumb Code    22  ugui.o(.text)
    UG_ButtonGetAlternateForeColor           0x000023d7   Thumb Code    22  ugui.o(.text)
    UG_ButtonGetAlternateBackColor           0x000023ed   Thumb Code    22  ugui.o(.text)
    UG_ButtonGetText                         0x00002403   Thumb Code    22  ugui.o(.text)
    UG_ButtonGetFont                         0x00002419   Thumb Code    22  ugui.o(.text)
    UG_ButtonGetStyle                        0x0000242f   Thumb Code    22  ugui.o(.text)
    UG_ButtonGetHSpace                       0x00002445   Thumb Code    24  ugui.o(.text)
    UG_ButtonGetVSpace                       0x0000245d   Thumb Code    36  ugui.o(.text)
    UG_ButtonGetAlignment                    0x00002481   Thumb Code    22  ugui.o(.text)
    _UG_CheckboxUpdate                       0x00002497   Thumb Code  1018  ugui.o(.text)
    UG_CheckboxCreate                        0x00002891   Thumb Code   142  ugui.o(.text)
    UG_CheckboxDelete                        0x0000291f   Thumb Code     8  ugui.o(.text)
    UG_CheckboxShow                          0x00002927   Thumb Code    34  ugui.o(.text)
    UG_CheckboxHide                          0x00002949   Thumb Code    50  ugui.o(.text)
    UG_CheckboxSetCheched                    0x0000297b   Thumb Code    36  ugui.o(.text)
    UG_CheckboxSetForeColor                  0x0000299f   Thumb Code    36  ugui.o(.text)
    UG_CheckboxSetBackColor                  0x000029c3   Thumb Code    36  ugui.o(.text)
    UG_CheckboxSetAlternateForeColor         0x000029e7   Thumb Code    36  ugui.o(.text)
    UG_CheckboxSetAlternateBackColor         0x00002a0b   Thumb Code    36  ugui.o(.text)
    UG_CheckboxSetText                       0x00002a2f   Thumb Code    36  ugui.o(.text)
    UG_CheckboxSetFont                       0x00002a53   Thumb Code    36  ugui.o(.text)
    UG_CheckboxSetStyle                      0x00002a77   Thumb Code   128  ugui.o(.text)
    UG_CheckboxSetHSpace                     0x00002af7   Thumb Code    36  ugui.o(.text)
    UG_CheckboxSetVSpace                     0x00002b1b   Thumb Code    36  ugui.o(.text)
    UG_CheckboxSetAlignment                  0x00002b3f   Thumb Code    36  ugui.o(.text)
    UG_CheckboxGetChecked                    0x00002b63   Thumb Code    22  ugui.o(.text)
    UG_CheckboxGetForeColor                  0x00002b79   Thumb Code    22  ugui.o(.text)
    UG_CheckboxGetBackColor                  0x00002b8f   Thumb Code    22  ugui.o(.text)
    UG_CheckboxGetAlternateForeColor         0x00002ba5   Thumb Code    22  ugui.o(.text)
    UG_CheckboxGetAlternateBackColor         0x00002bbb   Thumb Code    22  ugui.o(.text)
    UG_CheckboxGetText                       0x00002bd1   Thumb Code    22  ugui.o(.text)
    UG_CheckboxGetFont                       0x00002be7   Thumb Code    30  ugui.o(.text)
    UG_CheckboxGetStyle                      0x00002c05   Thumb Code    22  ugui.o(.text)
    UG_CheckboxGetHSpace                     0x00002c1b   Thumb Code    24  ugui.o(.text)
    UG_CheckboxGetVSpace                     0x00002c33   Thumb Code    24  ugui.o(.text)
    UG_CheckboxGetAlignment                  0x00002c4b   Thumb Code    22  ugui.o(.text)
    _UG_TextboxUpdate                        0x00002c61   Thumb Code   244  ugui.o(.text)
    UG_TextboxCreate                         0x00002d55   Thumb Code   128  ugui.o(.text)
    UG_TextboxDelete                         0x00002dd5   Thumb Code     8  ugui.o(.text)
    UG_TextboxShow                           0x00002ddd   Thumb Code    34  ugui.o(.text)
    UG_TextboxHide                           0x00002dff   Thumb Code    34  ugui.o(.text)
    UG_TextboxSetForeColor                   0x00002e21   Thumb Code    36  ugui.o(.text)
    UG_TextboxSetBackColor                   0x00002e45   Thumb Code    36  ugui.o(.text)
    UG_TextboxSetText                        0x00002e69   Thumb Code    36  ugui.o(.text)
    UG_TextboxSetFont                        0x00002e8d   Thumb Code    36  ugui.o(.text)
    UG_TextboxSetHSpace                      0x00002eb1   Thumb Code    36  ugui.o(.text)
    UG_TextboxSetVSpace                      0x00002ed5   Thumb Code    36  ugui.o(.text)
    UG_TextboxSetAlignment                   0x00002ef9   Thumb Code    36  ugui.o(.text)
    UG_TextboxGetForeColor                   0x00002f1d   Thumb Code    22  ugui.o(.text)
    UG_TextboxGetBackColor                   0x00002f33   Thumb Code    22  ugui.o(.text)
    UG_TextboxGetText                        0x00002f49   Thumb Code    22  ugui.o(.text)
    UG_TextboxGetFont                        0x00002f5f   Thumb Code    22  ugui.o(.text)
    UG_TextboxGetHSpace                      0x00002f75   Thumb Code    24  ugui.o(.text)
    UG_TextboxGetVSpace                      0x00002f8d   Thumb Code    24  ugui.o(.text)
    UG_TextboxGetAlignment                   0x00002fa5   Thumb Code    22  ugui.o(.text)
    _UG_ImageUpdate                          0x00002fbb   Thumb Code   162  ugui.o(.text)
    UG_ImageCreate                           0x0000305d   Thumb Code    94  ugui.o(.text)
    UG_ImageDelete                           0x000030bb   Thumb Code     8  ugui.o(.text)
    UG_ImageShow                             0x000030c3   Thumb Code    34  ugui.o(.text)
    UG_ImageHide                             0x000030e5   Thumb Code    34  ugui.o(.text)
    UG_ImageSetBMP                           0x00003107   Thumb Code    40  ugui.o(.text)
    GPIO_Init                                0x00003135   Thumb Code   486  swm320_gpio.o(.text)
    GPIO_SetBit                              0x0000331b   Thumb Code    12  swm320_gpio.o(.text)
    GPIO_ClrBit                              0x00003327   Thumb Code    12  swm320_gpio.o(.text)
    GPIO_InvBit                              0x00003333   Thumb Code    12  swm320_gpio.o(.text)
    GPIO_GetBit                              0x0000333f   Thumb Code    10  swm320_gpio.o(.text)
    GPIO_SetBits                             0x00003349   Thumb Code    20  swm320_gpio.o(.text)
    GPIO_ClrBits                             0x0000335d   Thumb Code    20  swm320_gpio.o(.text)
    GPIO_InvBits                             0x00003371   Thumb Code    20  swm320_gpio.o(.text)
    GPIO_GetBits                             0x00003385   Thumb Code    18  swm320_gpio.o(.text)
    GPIO_AtomicSetBit                        0x00003397   Thumb Code    16  swm320_gpio.o(.text)
    GPIO_AtomicClrBit                        0x000033a7   Thumb Code    16  swm320_gpio.o(.text)
    GPIO_AtomicInvBit                        0x000033b7   Thumb Code    20  swm320_gpio.o(.text)
    GPIO_AtomicSetBits                       0x000033cb   Thumb Code    24  swm320_gpio.o(.text)
    GPIO_AtomicClrBits                       0x000033e3   Thumb Code    24  swm320_gpio.o(.text)
    GPIO_AtomicInvBits                       0x000033fb   Thumb Code    24  swm320_gpio.o(.text)
    UART_Close                               0x00003431   Thumb Code    10  swm320_uart.o(.text)
    UART_Init                                0x0000343b   Thumb Code   374  swm320_uart.o(.text)
    UART_Open                                0x000035b1   Thumb Code    10  swm320_uart.o(.text)
    UART_WriteByte                           0x000035bb   Thumb Code     4  swm320_uart.o(.text)
    UART_ReadByte                            0x000035bf   Thumb Code    20  swm320_uart.o(.text)
    UART_IsTXBusy                            0x000035d3   Thumb Code    10  swm320_uart.o(.text)
    UART_IsRXFIFOEmpty                       0x000035dd   Thumb Code    10  swm320_uart.o(.text)
    UART_IsTXFIFOFull                        0x000035e7   Thumb Code     8  swm320_uart.o(.text)
    UART_SetBaudrate                         0x000035ef   Thumb Code    28  swm320_uart.o(.text)
    UART_GetBaudrate                         0x0000360b   Thumb Code    20  swm320_uart.o(.text)
    UART_CTSConfig                           0x0000361f   Thumb Code    20  swm320_uart.o(.text)
    UART_CTSLineState                        0x00003633   Thumb Code     8  swm320_uart.o(.text)
    UART_RTSConfig                           0x0000363b   Thumb Code    28  swm320_uart.o(.text)
    UART_RTSLineState                        0x00003657   Thumb Code     8  swm320_uart.o(.text)
    UART_LINConfig                           0x0000365f   Thumb Code    20  swm320_uart.o(.text)
    UART_LINGenerate                         0x00003673   Thumb Code    10  swm320_uart.o(.text)
    UART_LINIsDetected                       0x0000367d   Thumb Code     8  swm320_uart.o(.text)
    UART_LINIsGenerated                      0x00003685   Thumb Code     8  swm320_uart.o(.text)
    UART_ABRStart                            0x0000368d   Thumb Code    82  swm320_uart.o(.text)
    UART_ABRIsDone                           0x000036df   Thumb Code    24  swm320_uart.o(.text)
    UART_INTRXThresholdEn                    0x000036f7   Thumb Code    10  swm320_uart.o(.text)
    UART_INTRXThresholdDis                   0x00003701   Thumb Code    10  swm320_uart.o(.text)
    UART_INTRXThresholdStat                  0x0000370b   Thumb Code     8  swm320_uart.o(.text)
    UART_INTTXThresholdEn                    0x00003713   Thumb Code    10  swm320_uart.o(.text)
    UART_INTTXThresholdDis                   0x0000371d   Thumb Code    10  swm320_uart.o(.text)
    UART_INTTXThresholdStat                  0x00003727   Thumb Code     8  swm320_uart.o(.text)
    UART_INTTimeoutEn                        0x0000372f   Thumb Code    10  swm320_uart.o(.text)
    UART_INTTimeoutDis                       0x00003739   Thumb Code    10  swm320_uart.o(.text)
    UART_INTTimeoutStat                      0x00003743   Thumb Code     8  swm320_uart.o(.text)
    UART_INTTXDoneEn                         0x0000374b   Thumb Code    10  swm320_uart.o(.text)
    UART_INTTXDoneDis                        0x00003755   Thumb Code    10  swm320_uart.o(.text)
    UART_INTTXDoneStat                       0x0000375f   Thumb Code     8  swm320_uart.o(.text)
    PORT_Init                                0x0000379d   Thumb Code  1058  swm320_port.o(.text)
    LCD_INTDis                               0x00003bc9   Thumb Code     6  swm320_lcd.o(.text)
    LCD_INTEn                                0x00003bcf   Thumb Code     6  swm320_lcd.o(.text)
    LCD_Init                                 0x00003bd5   Thumb Code   228  swm320_lcd.o(.text)
    LCD_Start                                0x00003cb9   Thumb Code    10  swm320_lcd.o(.text)
    LCD_IsBusy                               0x00003cc3   Thumb Code     8  swm320_lcd.o(.text)
    LCD_INTClr                               0x00003ccb   Thumb Code     6  swm320_lcd.o(.text)
    LCD_INTStat                              0x00003cd1   Thumb Code     8  swm320_lcd.o(.text)
    SRAM_Init                                0x00003ce1   Thumb Code    86  swm320_sram.o(.text)
    SystemCoreClockUpdate                    0x00003d39   Thumb Code   100  system_swm320.o(.text)
    PLLInit                                  0x00003d9d   Thumb Code    58  system_swm320.o(.text)
    switchCLK_PLL                            0x00003dd7   Thumb Code    52  system_swm320.o(.text)
    switchCLK_XTAL                           0x00003e0b   Thumb Code    42  system_swm320.o(.text)
    switchCLK_32KHz                          0x00003e35   Thumb Code    50  system_swm320.o(.text)
    switchCLK_40MHz                          0x00003e67   Thumb Code    42  system_swm320.o(.text)
    switchCLK_20MHz                          0x00003e91   Thumb Code    40  system_swm320.o(.text)
    SystemInit                               0x00003eb9   Thumb Code    36  system_swm320.o(.text)
    Reset_Handler                            0x00003ef9   Thumb Code     4  startup_swm320.o(.text)
    NMI_Handler                              0x00003efd   Thumb Code     2  startup_swm320.o(.text)
    HardFault_Handler                        0x00003eff   Thumb Code     2  startup_swm320.o(.text)
    MemManage_Handler                        0x00003f01   Thumb Code     2  startup_swm320.o(.text)
    BusFault_Handler                         0x00003f03   Thumb Code     2  startup_swm320.o(.text)
    UsageFault_Handler                       0x00003f05   Thumb Code     2  startup_swm320.o(.text)
    SVC_Handler                              0x00003f07   Thumb Code     2  startup_swm320.o(.text)
    DebugMon_Handler                         0x00003f09   Thumb Code     2  startup_swm320.o(.text)
    PendSV_Handler                           0x00003f0b   Thumb Code     2  startup_swm320.o(.text)
    SysTick_Handler                          0x00003f0d   Thumb Code     2  startup_swm320.o(.text)
    GPIOA0_Handler                           0x00003f0f   Thumb Code     2  startup_swm320.o(.text)
    GPIOA1_Handler                           0x00003f11   Thumb Code     2  startup_swm320.o(.text)
    GPIOA2_Handler                           0x00003f13   Thumb Code     2  startup_swm320.o(.text)
    GPIOA3_Handler                           0x00003f15   Thumb Code     2  startup_swm320.o(.text)
    GPIOA4_Handler                           0x00003f17   Thumb Code     2  startup_swm320.o(.text)
    GPIOA5_Handler                           0x00003f19   Thumb Code     2  startup_swm320.o(.text)
    GPIOA6_Handler                           0x00003f1b   Thumb Code     2  startup_swm320.o(.text)
    GPIOA7_Handler                           0x00003f1d   Thumb Code     2  startup_swm320.o(.text)
    GPIOB0_Handler                           0x00003f1f   Thumb Code     2  startup_swm320.o(.text)
    GPIOB1_Handler                           0x00003f21   Thumb Code     2  startup_swm320.o(.text)
    GPIOB2_Handler                           0x00003f23   Thumb Code     2  startup_swm320.o(.text)
    GPIOB3_Handler                           0x00003f25   Thumb Code     2  startup_swm320.o(.text)
    GPIOB4_Handler                           0x00003f27   Thumb Code     2  startup_swm320.o(.text)
    GPIOB5_Handler                           0x00003f29   Thumb Code     2  startup_swm320.o(.text)
    GPIOB6_Handler                           0x00003f2b   Thumb Code     2  startup_swm320.o(.text)
    GPIOB7_Handler                           0x00003f2d   Thumb Code     2  startup_swm320.o(.text)
    GPIOC0_Handler                           0x00003f2f   Thumb Code     2  startup_swm320.o(.text)
    GPIOC1_Handler                           0x00003f31   Thumb Code     2  startup_swm320.o(.text)
    GPIOC2_Handler                           0x00003f33   Thumb Code     2  startup_swm320.o(.text)
    GPIOC3_Handler                           0x00003f35   Thumb Code     2  startup_swm320.o(.text)
    GPIOC4_Handler                           0x00003f37   Thumb Code     2  startup_swm320.o(.text)
    GPIOC5_Handler                           0x00003f39   Thumb Code     2  startup_swm320.o(.text)
    GPIOC6_Handler                           0x00003f3b   Thumb Code     2  startup_swm320.o(.text)
    GPIOC7_Handler                           0x00003f3d   Thumb Code     2  startup_swm320.o(.text)
    GPIOM0_Handler                           0x00003f3f   Thumb Code     2  startup_swm320.o(.text)
    GPIOM1_Handler                           0x00003f41   Thumb Code     2  startup_swm320.o(.text)
    GPIOM2_Handler                           0x00003f43   Thumb Code     2  startup_swm320.o(.text)
    GPIOM3_Handler                           0x00003f45   Thumb Code     2  startup_swm320.o(.text)
    GPIOM4_Handler                           0x00003f47   Thumb Code     2  startup_swm320.o(.text)
    GPIOM5_Handler                           0x00003f49   Thumb Code     2  startup_swm320.o(.text)
    GPIOM6_Handler                           0x00003f4b   Thumb Code     2  startup_swm320.o(.text)
    GPIOM7_Handler                           0x00003f4d   Thumb Code     2  startup_swm320.o(.text)
    DMA_Handler                              0x00003f4f   Thumb Code     2  startup_swm320.o(.text)
    NORFLC_Handler                           0x00003f53   Thumb Code     2  startup_swm320.o(.text)
    CAN_Handler                              0x00003f55   Thumb Code     2  startup_swm320.o(.text)
    PULSE_Handler                            0x00003f57   Thumb Code     2  startup_swm320.o(.text)
    WDT_Handler                              0x00003f59   Thumb Code     2  startup_swm320.o(.text)
    PWM_Handler                              0x00003f5b   Thumb Code     2  startup_swm320.o(.text)
    UART0_Handler                            0x00003f5d   Thumb Code     2  startup_swm320.o(.text)
    UART1_Handler                            0x00003f5f   Thumb Code     2  startup_swm320.o(.text)
    UART2_Handler                            0x00003f61   Thumb Code     2  startup_swm320.o(.text)
    UART3_Handler                            0x00003f63   Thumb Code     2  startup_swm320.o(.text)
    I2C0_Handler                             0x00003f65   Thumb Code     2  startup_swm320.o(.text)
    I2C1_Handler                             0x00003f67   Thumb Code     2  startup_swm320.o(.text)
    SPI0_Handler                             0x00003f69   Thumb Code     2  startup_swm320.o(.text)
    ADC0_Handler                             0x00003f6b   Thumb Code     2  startup_swm320.o(.text)
    RTC_Handler                              0x00003f6d   Thumb Code     2  startup_swm320.o(.text)
    BOD_Handler                              0x00003f6f   Thumb Code     2  startup_swm320.o(.text)
    SDIO_Handler                             0x00003f71   Thumb Code     2  startup_swm320.o(.text)
    GPIOA_Handler                            0x00003f73   Thumb Code     2  startup_swm320.o(.text)
    GPIOB_Handler                            0x00003f75   Thumb Code     2  startup_swm320.o(.text)
    GPIOC_Handler                            0x00003f77   Thumb Code     2  startup_swm320.o(.text)
    GPIOM_Handler                            0x00003f79   Thumb Code     2  startup_swm320.o(.text)
    GPION_Handler                            0x00003f7b   Thumb Code     2  startup_swm320.o(.text)
    GPIOP_Handler                            0x00003f7d   Thumb Code     2  startup_swm320.o(.text)
    ADC1_Handler                             0x00003f7f   Thumb Code     2  startup_swm320.o(.text)
    FPU_Handler                              0x00003f81   Thumb Code     2  startup_swm320.o(.text)
    SPI1_Handler                             0x00003f83   Thumb Code     2  startup_swm320.o(.text)
    TIMR0_Handler                            0x00003f85   Thumb Code     2  startup_swm320.o(.text)
    TIMR1_Handler                            0x00003f87   Thumb Code     2  startup_swm320.o(.text)
    TIMR2_Handler                            0x00003f89   Thumb Code     2  startup_swm320.o(.text)
    TIMR3_Handler                            0x00003f8b   Thumb Code     2  startup_swm320.o(.text)
    TIMR4_Handler                            0x00003f8d   Thumb Code     2  startup_swm320.o(.text)
    TIMR5_Handler                            0x00003f8f   Thumb Code     2  startup_swm320.o(.text)
    __aeabi_memcpy                           0x00003f95   Thumb Code    36  memcpya.o(.text)
    __aeabi_memcpy4                          0x00003f95   Thumb Code     0  memcpya.o(.text)
    __aeabi_memcpy8                          0x00003f95   Thumb Code     0  memcpya.o(.text)
    __scatterload                            0x00003fb9   Thumb Code    28  init.o(.text)
    __scatterload_rt2                        0x00003fb9   Thumb Code     0  init.o(.text)
    __scatterload_copy                       0x00003fdd   Thumb Code    14  handlers.o(i.__scatterload_copy)
    __scatterload_null                       0x00003feb   Thumb Code     2  handlers.o(i.__scatterload_null)
    __scatterload_zeroinit                   0x00003fed   Thumb Code    14  handlers.o(i.__scatterload_zeroinit)
    font_12x20                               0x00004002   Data       10240  ugui.o(.constdata)
    FONT_12X20                               0x00006804   Data          20  ugui.o(.constdata)
    pal_window                               0x00006818   Data          24  ugui.o(.constdata)
    pal_button_pressed                       0x00006830   Data          24  ugui.o(.constdata)
    pal_button_released                      0x00006848   Data          24  ugui.o(.constdata)
    pal_checkbox_pressed                     0x00006860   Data          24  ugui.o(.constdata)
    pal_checkbox_released                    0x00006878   Data          24  ugui.o(.constdata)
    Region$$Table$$Base                      0x00006890   Number         0  anon$$obj.o(Region$$Table)
    Region$$Table$$Limit                     0x000068b0   Number         0  anon$$obj.o(Region$$Table)
    SystemCoreClock                          0x2000000c   Data           4  system_swm320.o(.data)
    gui                                      0x20000010   Data         100  main.o(.bss)
    __initial_sp                             0x20000478   Data           0  startup_swm320.o(STACK)
    LCD_Buffer                               0x69000000   Data       261120  main.o(.ARM.__AT_0x69000000)



==============================================================================

Memory Map of the image

  Image Entry point : 0x00000149

  Load Region LR_IROM1 (Base: 0x00000000, Size: 0x000068c0, Max: 0x00080000, ABSOLUTE)

    Execution Region ER_IROM1 (Base: 0x00000000, Size: 0x000068b0, Max: 0x00080000, ABSOLUTE)

    Base Addr    Size         Type   Attr      Idx    E Section Name        Object

    0x00000000   0x00000148   Data   RO          690    RESET               startup_swm320.o
    0x00000148   0x00000000   Code   RO          695  * .ARM.Collect$$$$00000000  mc_w.l(entry.o)
    0x00000148   0x00000004   Code   RO          702    .ARM.Collect$$$$00000001  mc_w.l(entry2.o)
    0x0000014c   0x00000004   Code   RO          705    .ARM.Collect$$$$00000004  mc_w.l(entry5.o)
    0x00000150   0x00000000   Code   RO          707    .ARM.Collect$$$$00000008  mc_w.l(entry7b.o)
    0x00000150   0x00000000   Code   RO          709    .ARM.Collect$$$$0000000A  mc_w.l(entry8b.o)
    0x00000150   0x00000008   Code   RO          710    .ARM.Collect$$$$0000000B  mc_w.l(entry9a.o)
    0x00000158   0x00000000   Code   RO          712    .ARM.Collect$$$$0000000D  mc_w.l(entry10a.o)
    0x00000158   0x00000000   Code   RO          714    .ARM.Collect$$$$0000000F  mc_w.l(entry11a.o)
    0x00000158   0x00000004   Code   RO          703    .ARM.Collect$$$$00002712  mc_w.l(entry2.o)
    0x0000015c   0x00000260   Code   RO            4    .text               main.o
    0x000003bc   0x00002d78   Code   RO          129    .text               ugui.o
    0x00003134   0x000002fc   Code   RO          208    .text               swm320_gpio.o
    0x00003430   0x0000036c   Code   RO          308    .text               swm320_uart.o
    0x0000379c   0x0000042c   Code   RO          410    .text               swm320_port.o
    0x00003bc8   0x00000118   Code   RO          506    .text               swm320_lcd.o
    0x00003ce0   0x00000056   Code   RO          636    .text               swm320_sram.o
    0x00003d36   0x00000002   PAD
    0x00003d38   0x000001c0   Code   RO          660    .text               system_swm320.o
    0x00003ef8   0x0000009c   Code   RO          691    .text               startup_swm320.o
    0x00003f94   0x00000024   Code   RO          698    .text               mc_w.l(memcpya.o)
    0x00003fb8   0x00000024   Code   RO          716    .text               mc_w.l(init.o)
    0x00003fdc   0x0000000e   Code   RO          720    i.__scatterload_copy  mc_w.l(handlers.o)
    0x00003fea   0x00000002   Code   RO          721    i.__scatterload_null  mc_w.l(handlers.o)
    0x00003fec   0x0000000e   Code   RO          722    i.__scatterload_zeroinit  mc_w.l(handlers.o)
    0x00003ffa   0x00000002   PAD
    0x00003ffc   0x00000006   Data   RO            7    .constdata          main.o
    0x00004002   0x00002800   Data   RO          130    .constdata          ugui.o
    0x00006802   0x00000002   PAD
    0x00006804   0x00000014   Data   RO          131    .constdata          ugui.o
    0x00006818   0x00000078   Data   RO          132    .constdata          ugui.o
    0x00006890   0x00000020   Data   RO          718    Region$$Table       anon$$obj.o


    Execution Region RW_IRAM1 (Base: 0x20000000, Size: 0x00000478, Max: 0x00020000, ABSOLUTE)

    Base Addr    Size         Type   Attr      Idx    E Section Name        Object

    0x20000000   0x0000000c   Data   RW          133    .data               ugui.o
    0x2000000c   0x00000004   Data   RW          661    .data               system_swm320.o
    0x20000010   0x00000064   Zero   RW            6    .bss                main.o
    0x20000074   0x00000004   PAD
    0x20000078   0x00000400   Zero   RW          688    STACK               startup_swm320.o



  Load Region LR$$.ARM.__AT_0x69000000 (Base: 0x69000000, Size: 0x00000000, Max: 0x0003fc00, ABSOLUTE)

    Execution Region ER$$.ARM.__AT_0x69000000 (Base: 0x69000000, Size: 0x0003fc00, Max: 0x0003fc00, ABSOLUTE, UNINIT)

    Base Addr    Size         Type   Attr      Idx    E Section Name        Object

    0x69000000   0x0003fc00   Zero   RW            5    .ARM.__AT_0x69000000  main.o


==============================================================================

Image component sizes


      Code (inc. data)   RO Data    RW Data    ZI Data      Debug   Object Name

       608         62          6          0     261220     136218   main.o
       156          4        328          0       1024       3448   startup_swm320.o
         0          0          0          0          0      23967   swm320_adc.o
       764         30          0          0          0       4835   swm320_gpio.o
       280          8          0          0          0       2316   swm320_lcd.o
      1068         16          0          0          0       1572   swm320_port.o
        86          0          0          0          0       1148   swm320_sram.o
       876         10          0          0          0       7502   swm320_uart.o
       448         28          0          4          0       2230   system_swm320.o
     11640         52      10380         12          0      69845   ugui.o

    ----------------------------------------------------------------------
     15928        210      10748         16     262248     253081   Object Totals
         0          0         32          0          0          0   (incl. Generated)
         2          0          2          0          4          0   (incl. Padding)

    ----------------------------------------------------------------------

      Code (inc. data)   RO Data    RW Data    ZI Data      Debug   Library Member Name

         0          0          0          0          0          0   entry.o
         0          0          0          0          0          0   entry10a.o
         0          0          0          0          0          0   entry11a.o
         8          4          0          0          0          0   entry2.o
         4          0          0          0          0          0   entry5.o
         0          0          0          0          0          0   entry7b.o
         0          0          0          0          0          0   entry8b.o
         8          4          0          0          0          0   entry9a.o
        30          0          0          0          0          0   handlers.o
        36          8          0          0          0         68   init.o
        36          0          0          0          0         68   memcpya.o

    ----------------------------------------------------------------------
       124         16          0          0          0        136   Library Totals
         2          0          0          0          0          0   (incl. Padding)

    ----------------------------------------------------------------------

      Code (inc. data)   RO Data    RW Data    ZI Data      Debug   Library Name

       122         16          0          0          0        136   mc_w.l

    ----------------------------------------------------------------------
       124         16          0          0          0        136   Library Totals

    ----------------------------------------------------------------------

==============================================================================


      Code (inc. data)   RO Data    RW Data    ZI Data      Debug   

     16052        226      10748         16     262248     252485   Grand Totals
     16052        226      10748         16     262248     252485   ELF Image Totals
     16052        226      10748         16          0          0   ROM Totals

==============================================================================

    Total RO  Size (Code + RO Data)                26800 (  26.17kB)
    Total RW  Size (RW Data + ZI Data)            262264 ( 256.12kB)
    Total ROM Size (Code + RO Data + RW Data)      26816 (  26.19kB)

==============================================================================

